target datalayout = "e-m:e-p270:32:32-p271:32:32-p272:64:64-i64:64-f80:128-n8:16:32:64-S128"
target triple = "x86_64-pc-linux-gnu"

@.str = private unnamed_addr constant [3 x i8] c"%d\00", align 1

; Function Attrs: noinline nounwind uwtable
define dso_local i32 @main() #0 {
  %1 = alloca i32, align 4
  %2 = alloca i32, align 4
  %3 = alloca i32, align 4
  %4 = alloca i32, align 4
  %5 = alloca i32, align 4
  %6 = alloca i32, align 4
  %7 = alloca i32, align 4
  %8 = alloca i32*, align 8
  %9 = alloca i32*, align 8
  %10 = alloca i32*, align 8
  store i32 0, i32* %1, align 4
  %11 = call i32 (i8*, ...) @__isoc99_scanf(i8* getelementptr inbounds ([3 x i8], [3 x i8]* @.str, i64 0, i64 0), i32* %2)
  %12 = load i32, i32* %2, align 4
  %13 = sext i32 %12 to i64
  %14 = mul i64 %13, 4
  %15 = call noalias i8* @malloc(i64 %14) #3
  %16 = bitcast i8* %15 to i32*
  store i32* %16, i32** %8, align 8
  %17 = load i32, i32* %2, align 4
  %18 = sext i32 %17 to i64
  %19 = mul i64 %18, 4
  %20 = call noalias i8* @malloc(i64 %19) #3
  %21 = bitcast i8* %20 to i32*
  store i32* %21, i32** %9, align 8
  %22 = load i32, i32* %2, align 4
  %23 = sext i32 %22 to i64
  %24 = mul i64 %23, 4
  %25 = call noalias i8* @malloc(i64 %24) #3
  %26 = bitcast i8* %25 to i32*
  store i32* %26, i32** %10, align 8
  store i32 0, i32* %4, align 4
  br label %27

27:                                               ; preds = %37, %0
  %28 = load i32, i32* %4, align 4
  %29 = load i32, i32* %2, align 4
  %30 = icmp slt i32 %28, %29
  br i1 %30, label %31, label %40

31:                                               ; preds = %27
  %32 = load i32*, i32** %8, align 8
  %33 = load i32, i32* %4, align 4
  %34 = sext i32 %33 to i64
  %35 = getelementptr inbounds i32, i32* %32, i64 %34
  %36 = call i32 (i8*, ...) @__isoc99_scanf(i8* getelementptr inbounds ([3 x i8], [3 x i8]* @.str, i64 0, i64 0), i32* %35)
  br label %37

37:                                               ; preds = %31
  %38 = load i32, i32* %4, align 4
  %39 = add nsw i32 %38, 1
  store i32 %39, i32* %4, align 4
  br label %27

40:                                               ; preds = %27
  store i32 0, i32* %4, align 4
  br label %41

41:                                               ; preds = %50, %40
  %42 = load i32, i32* %4, align 4
  %43 = load i32, i32* %2, align 4
  %44 = icmp slt i32 %42, %43
  br i1 %44, label %45, label %53

45:                                               ; preds = %41
  %46 = load i32*, i32** %9, align 8
  %47 = load i32, i32* %4, align 4
  %48 = sext i32 %47 to i64
  %49 = getelementptr inbounds i32, i32* %46, i64 %48
  store i32 1, i32* %49, align 4
  br label %50

50:                                               ; preds = %45
  %51 = load i32, i32* %4, align 4
  %52 = add nsw i32 %51, 1
  store i32 %52, i32* %4, align 4
  br label %41

53:                                               ; preds = %41
  store i32 1, i32* %4, align 4
  br label %54

54:                                               ; preds = %137, %53
  %55 = load i32, i32* %4, align 4
  %56 = load i32, i32* %2, align 4
  %57 = icmp slt i32 %55, %56
  br i1 %57, label %58, label %140

58:                                               ; preds = %54
  store i32 0, i32* %7, align 4
  store i32 0, i32* %5, align 4
  br label %59

59:                                               ; preds = %68, %58
  %60 = load i32, i32* %5, align 4
  %61 = load i32, i32* %2, align 4
  %62 = icmp slt i32 %60, %61
  br i1 %62, label %63, label %71

63:                                               ; preds = %59
  %64 = load i32*, i32** %10, align 8
  %65 = load i32, i32* %5, align 4
  %66 = sext i32 %65 to i64
  %67 = getelementptr inbounds i32, i32* %64, i64 %66
  store i32 0, i32* %67, align 4
  br label %68

68:                                               ; preds = %63
  %69 = load i32, i32* %5, align 4
  %70 = add nsw i32 %69, 1
  store i32 %70, i32* %5, align 4
  br label %59

71:                                               ; preds = %59
  store i32 0, i32* %5, align 4
  br label %72

72:                                               ; preds = %122, %71
  %73 = load i32, i32* %5, align 4
  %74 = load i32, i32* %4, align 4
  %75 = icmp slt i32 %73, %74
  br i1 %75, label %76, label %125

76:                                               ; preds = %72
  %77 = load i32*, i32** %8, align 8
  %78 = load i32, i32* %5, align 4
  %79 = sext i32 %78 to i64
  %80 = getelementptr inbounds i32, i32* %77, i64 %79
  %81 = load i32, i32* %80, align 4
  %82 = load i32*, i32** %8, align 8
  %83 = load i32, i32* %4, align 4
  %84 = sext i32 %83 to i64
  %85 = getelementptr inbounds i32, i32* %82, i64 %84
  %86 = load i32, i32* %85, align 4
  %87 = icmp sge i32 %81, %86
  br i1 %87, label %88, label %98

88:                                               ; preds = %76
  %89 = load i32*, i32** %9, align 8
  %90 = load i32, i32* %5, align 4
  %91 = sext i32 %90 to i64
  %92 = getelementptr inbounds i32, i32* %89, i64 %91
  %93 = load i32, i32* %92, align 4
  %94 = load i32*, i32** %10, align 8
  %95 = load i32, i32* %5, align 4
  %96 = sext i32 %95 to i64
  %97 = getelementptr inbounds i32, i32* %94, i64 %96
  store i32 %93, i32* %97, align 4
  br label %98

98:                                               ; preds = %88, %76
  store i32 0, i32* %6, align 4
  br label %99

99:                                               ; preds = %118, %98
  %100 = load i32, i32* %6, align 4
  %101 = load i32, i32* %4, align 4
  %102 = icmp slt i32 %100, %101
  br i1 %102, label %103, label %121

103:                                              ; preds = %99
  %104 = load i32*, i32** %10, align 8
  %105 = load i32, i32* %6, align 4
  %106 = sext i32 %105 to i64
  %107 = getelementptr inbounds i32, i32* %104, i64 %106
  %108 = load i32, i32* %107, align 4
  %109 = load i32, i32* %7, align 4
  %110 = icmp sgt i32 %108, %109
  br i1 %110, label %111, label %117

111:                                              ; preds = %103
  %112 = load i32*, i32** %10, align 8
  %113 = load i32, i32* %6, align 4
  %114 = sext i32 %113 to i64
  %115 = getelementptr inbounds i32, i32* %112, i64 %114
  %116 = load i32, i32* %115, align 4
  store i32 %116, i32* %7, align 4
  br label %117

117:                                              ; preds = %111, %103
  br label %118

118:                                              ; preds = %117
  %119 = load i32, i32* %6, align 4
  %120 = add nsw i32 %119, 1
  store i32 %120, i32* %6, align 4
  br label %99

121:                                              ; preds = %99
  br label %122

122:                                              ; preds = %121
  %123 = load i32, i32* %5, align 4
  %124 = add nsw i32 %123, 1
  store i32 %124, i32* %5, align 4
  br label %72

125:                                              ; preds = %72
  %126 = load i32*, i32** %9, align 8
  %127 = load i32, i32* %4, align 4
  %128 = sext i32 %127 to i64
  %129 = getelementptr inbounds i32, i32* %126, i64 %128
  %130 = load i32, i32* %129, align 4
  %131 = load i32, i32* %7, align 4
  %132 = add nsw i32 %130, %131
  %133 = load i32*, i32** %9, align 8
  %134 = load i32, i32* %4, align 4
  %135 = sext i32 %134 to i64
  %136 = getelementptr inbounds i32, i32* %133, i64 %135
  store i32 %132, i32* %136, align 4
  br label %137

137:                                              ; preds = %125
  %138 = load i32, i32* %4, align 4
  %139 = add nsw i32 %138, 1
  store i32 %139, i32* %4, align 4
  br label %54

140:                                              ; preds = %54
  store i32 0, i32* %7, align 4
  store i32 0, i32* %4, align 4
  br label %141

141:                                              ; preds = %160, %140
  %142 = load i32, i32* %4, align 4
  %143 = load i32, i32* %2, align 4
  %144 = icmp slt i32 %142, %143
  br i1 %144, label %145, label %163

145:                                              ; preds = %141
  %146 = load i32*, i32** %9, align 8
  %147 = load i32, i32* %4, align 4
  %148 = sext i32 %147 to i64
  %149 = getelementptr inbounds i32, i32* %146, i64 %148
  %150 = load i32, i32* %149, align 4
  %151 = load i32, i32* %7, align 4
  %152 = icmp sgt i32 %150, %151
  br i1 %152, label %153, label %159

153:                                              ; preds = %145
  %154 = load i32*, i32** %9, align 8
  %155 = load i32, i32* %4, align 4
  %156 = sext i32 %155 to i64
  %157 = getelementptr inbounds i32, i32* %154, i64 %156
  %158 = load i32, i32* %157, align 4
  store i32 %158, i32* %7, align 4
  br label %159

159:                                              ; preds = %153, %145
  br label %160

160:                                              ; preds = %159
  %161 = load i32, i32* %4, align 4
  %162 = add nsw i32 %161, 1
  store i32 %162, i32* %4, align 4
  br label %141

163:                                              ; preds = %141
  %164 = load i32, i32* %7, align 4
  %165 = call i32 (i8*, ...) @printf(i8* getelementptr inbounds ([3 x i8], [3 x i8]* @.str, i64 0, i64 0), i32 %164)
  ret i32 0
}